target datalayout = "e-m:e-p270:32:32-p271:32:32-p272:64:64-i64:64-i128:128-f80:128-n8:16:32:64-S128"
target triple = "x86_64-pc-linux-gnu"

; Function Attrs: nounwind uwtable
define internal i32 @zend_jit_free_cv(ptr noundef %0, i32 noundef %1, i32 noundef %2) #0 {
  %4 = alloca ptr, align 8
  %5 = alloca i32, align 4
  %6 = alloca i32, align 4
  %7 = alloca i64, align 8
  store ptr %0, ptr %4, align 8
  store i32 %1, ptr %5, align 4
  store i32 %2, ptr %6, align 4
  %8 = load i32, ptr %5, align 4
  %9 = and i32 %8, 1984
  %10 = icmp ne i32 %9, 0
  br i1 %10, label %11, label %24

11:                                               ; preds = %3
  %12 = load i32, ptr %6, align 4
  %13 = add i32 %12, 5
  %14 = zext i32 %13 to i64
  %15 = mul i64 %14, 16
  %16 = trunc i64 %15 to i32
  %17 = zext i32 %16 to i64
  %18 = shl i64 %17, 8
  %19 = or i64 %18, 56
  %20 = or i64 %19, 1
  store i64 %20, ptr %7, align 8
  %21 = load ptr, ptr %4, align 8
  %22 = load i64, ptr %7, align 8
  %23 = load i32, ptr %5, align 4
  call void @jit_ZVAL_PTR_DTOR(ptr noundef %21, i64 noundef %22, i32 noundef %23, i1 noundef zeroext true, ptr noundef null)
  br label %24

24:                                               ; preds = %11, %3
  ret i32 1
}