; Function Attrs: nounwind uwtable
define internal fastcc void @zend_jit_free_cv(ptr noundef %0, i32 noundef %1, i32 noundef %2) unnamed_addr #0 {
  %4 = and i32 %1, 1984
  %.not = icmp eq i32 %4, 0
  br i1 %.not, label %11, label %5

5:                                                ; preds = %3
  %6 = shl i32 %2, 4
  %7 = add i32 %6, 80
  %8 = zext i32 %7 to i64
  %9 = shl nuw nsw i64 %8, 8
  %10 = or disjoint i64 %9, 57
  tail call fastcc void @jit_ZVAL_PTR_DTOR(ptr noundef %0, i64 noundef %10, i32 noundef %1, i1 noundef zeroext true, ptr noundef null)
  br label %11

11:                                               ; preds = %5, %3
  ret void
}